
/Users/Mac/Project/STM32/Flash_with_clock/Blink_Clock.axf:     file format elf32-littlearm


Disassembly of section .text:

08000000 <Reset_Exception-0x8>:
 8000000:	20020000 	andcs	r0, r2, r0
 8000004:	08000009 	stmdaeq	r0, {r0, r3}

08000008 <Reset_Exception>:
 8000008:	f643 0000 	movw	r0, #14336	; 0x3800
 800000c:	f2c4 0002 	movt	r0, #16386	; 0x4002
 8000010:	f240 0100 	movw	r1, #0
 8000014:	f2c0 0101 	movt	r1, #1
 8000018:	6001      	str	r1, [r0, #0]
 800001a:	f643 0004 	movw	r0, #14340	; 0x3804
 800001e:	f2c4 0002 	movt	r0, #16386	; 0x4002
 8000022:	f245 4108 	movw	r1, #21512	; 0x5408
 8000026:	f2c0 3140 	movt	r1, #832	; 0x340
 800002a:	6001      	str	r1, [r0, #0]
 800002c:	f643 0000 	movw	r0, #14336	; 0x3800
 8000030:	f2c4 0002 	movt	r0, #16386	; 0x4002
 8000034:	f240 0100 	movw	r1, #0
 8000038:	f2c0 1100 	movt	r1, #256	; 0x100
 800003c:	6001      	str	r1, [r0, #0]
 800003e:	f643 0008 	movw	r0, #14344	; 0x3808
 8000042:	f2c4 0002 	movt	r0, #16386	; 0x4002
 8000046:	f646 4172 	movw	r1, #27762	; 0x6c72
 800004a:	f6c1 31e1 	movt	r1, #7137	; 0x1be1
 800004e:	6001      	str	r1, [r0, #0]
 8000050:	f643 0030 	movw	r0, #14384	; 0x3830
 8000054:	f2c4 0002 	movt	r0, #16386	; 0x4002
 8000058:	f240 0108 	movw	r1, #8
 800005c:	f2c0 0100 	movt	r1, #0
 8000060:	6001      	str	r1, [r0, #0]
 8000062:	f640 4200 	movw	r2, #3072	; 0xc00
 8000066:	f2c4 0202 	movt	r2, #16386	; 0x4002
 800006a:	f240 0300 	movw	r3, #0
 800006e:	f2c0 1300 	movt	r3, #256	; 0x100
 8000072:	6013      	str	r3, [r2, #0]

08000074 <BLINK_Loop>:
 8000074:	f640 4018 	movw	r0, #3096	; 0xc18
 8000078:	f2c4 0002 	movt	r0, #16386	; 0x4002
 800007c:	f241 0100 	movw	r1, #4096	; 0x1000
 8000080:	f2c0 0100 	movt	r1, #0
 8000084:	6001      	str	r1, [r0, #0]
 8000086:	f000 f80c 	bl	80000a2 <DELAY>
 800008a:	f640 4018 	movw	r0, #3096	; 0xc18
 800008e:	f2c4 0002 	movt	r0, #16386	; 0x4002
 8000092:	f240 0100 	movw	r1, #0
 8000096:	f2c1 0100 	movt	r1, #4096	; 0x1000
 800009a:	6001      	str	r1, [r0, #0]
 800009c:	f000 f801 	bl	80000a2 <DELAY>
 80000a0:	e7e8      	b.n	8000074 <BLINK_Loop>

080000a2 <DELAY>:
 80000a2:	f240 0200 	movw	r2, #0
 80000a6:	f2c0 1250 	movt	r2, #336	; 0x150

080000aa <Delay_loop>:
 80000aa:	3a01      	subs	r2, #1
 80000ac:	d1fd      	bne.n	80000aa <Delay_loop>
 80000ae:	4770      	bx	lr

Disassembly of section .ARM.attributes:

00000000 <.ARM.attributes>:
   0:	00001a41 	andeq	r1, r0, r1, asr #20
   4:	61656100 	cmnvs	r5, r0, lsl #2
   8:	01006962 	tsteq	r0, r2, ror #18
   c:	00000010 	andeq	r0, r0, r0, lsl r0
  10:	4d2d3705 	stcmi	7, cr3, [sp, #-20]!	; 0xffffffec
  14:	070a0600 	streq	r0, [sl, -r0, lsl #12]
  18:	Address 0x0000000000000018 is out of bounds.


Disassembly of section .debug_line:

00000000 <.debug_line>:
   0:	00000081 	andeq	r0, r0, r1, lsl #1
   4:	004e0002 	subeq	r0, lr, r2
   8:	01020000 	mrseq	r0, (UNDEF: 2)
   c:	000d0efb 	strdeq	r0, [sp], -fp
  10:	01010101 	tsteq	r1, r1, lsl #2
  14:	01000000 	mrseq	r0, (UNDEF: 0)
  18:	2f010000 	svccs	0x00010000
  1c:	72657355 	rsbvc	r7, r5, #1409286145	; 0x54000001
  20:	614d2f73 	hvcvs	54003	; 0xd2f3
  24:	72502f63 	subsvc	r2, r0, #396	; 0x18c
  28:	63656a6f 	cmnvs	r5, #454656	; 0x6f000
  2c:	54532f74 	ldrbpl	r2, [r3], #-3956	; 0xfffff08c
  30:	2f32334d 	svccs	0x0032334d
  34:	73616c46 	cmnvc	r1, #17920	; 0x4600
  38:	69775f68 	ldmdbvs	r7!, {r3, r5, r6, r8, r9, sl, fp, ip, lr}^
  3c:	635f6874 	cmpvs	pc, #116, 16	; 0x740000
  40:	6b636f6c 	blvs	18dbdf8 <GPIOD_MODER+0x8dbdf8>
  44:	6c420000 	marvs	acc0, r0, r2
  48:	5f6b6e69 	svcpl	0x006b6e69
  4c:	636f6c43 	cmnvs	pc, #17152	; 0x4300
  50:	00732e6b 	rsbseq	r2, r3, fp, ror #28
  54:	00000001 	andeq	r0, r0, r1
  58:	08020500 	stmdaeq	r2, {r8, sl}
  5c:	03080000 	movweq	r0, #32768	; 0x8000
  60:	4b4b0122 	blmi	12c04f0 <GPIOD_MODER+0x2c04f0>
  64:	244b4b24 	strbcs	r4, [fp], #-2852	; 0xfffff4dc
  68:	4b244b4b 	blmi	912d9c <I2SSRC+0x112d9c>
  6c:	4b4b244b 	blmi	12c91a0 <GPIOD_MODER+0x2c91a0>
  70:	234b4b24 	movtcs	r4, #47908	; 0xbb24
  74:	30224b4b 	eorcc	r4, r2, fp, asr #22
  78:	2f224b4b 	svccs	0x00224b4b
  7c:	21214e24 			; <UNDEFINED> instruction: 0x21214e24
  80:	01000102 	tsteq	r0, r2, lsl #2
  84:	Address 0x0000000000000084 is out of bounds.


Disassembly of section .debug_info:

00000000 <.debug_info>:
   0:	00000086 	andeq	r0, r0, r6, lsl #1
   4:	00000002 	andeq	r0, r0, r2
   8:	01040000 	mrseq	r0, (UNDEF: 4)
   c:	00000000 	andeq	r0, r0, r0
  10:	08000000 	stmdaeq	r0, {}	; <UNPREDICTABLE>
  14:	080000b0 	stmdaeq	r0, {r4, r5, r7}
  18:	6573552f 	ldrbvs	r5, [r3, #-1327]!	; 0xfffffad1
  1c:	4d2f7372 	stcmi	3, cr7, [pc, #-456]!	; fffffe5c <RCC_PLLI2SCFGR+0xbffdc5d8>
  20:	502f6361 	eorpl	r6, pc, r1, ror #6
  24:	656a6f72 	strbvs	r6, [sl, #-3954]!	; 0xfffff08e
  28:	532f7463 			; <UNDEFINED> instruction: 0x532f7463
  2c:	32334d54 	eorscc	r4, r3, #84, 26	; 0x1500
  30:	616c462f 	cmnvs	ip, pc, lsr #12
  34:	775f6873 			; <UNDEFINED> instruction: 0x775f6873
  38:	5f687469 	svcpl	0x00687469
  3c:	636f6c63 	cmnvs	pc, #25344	; 0x6300
  40:	6c422f6b 	mcrrvs	15, 6, r2, r2, cr11
  44:	5f6b6e69 	svcpl	0x006b6e69
  48:	636f6c43 	cmnvs	pc, #17152	; 0x4300
  4c:	00732e6b 	rsbseq	r2, r3, fp, ror #28
  50:	6573552f 	ldrbvs	r5, [r3, #-1327]!	; 0xfffffad1
  54:	4d2f7372 	stcmi	3, cr7, [pc, #-456]!	; fffffe94 <RCC_PLLI2SCFGR+0xbffdc610>
  58:	502f6361 	eorpl	r6, pc, r1, ror #6
  5c:	656a6f72 	strbvs	r6, [sl, #-3954]!	; 0xfffff08e
  60:	532f7463 			; <UNDEFINED> instruction: 0x532f7463
  64:	32334d54 	eorscc	r4, r3, #84, 26	; 0x1500
  68:	616c462f 	cmnvs	ip, pc, lsr #12
  6c:	775f6873 			; <UNDEFINED> instruction: 0x775f6873
  70:	5f687469 	svcpl	0x00687469
  74:	636f6c63 	cmnvs	pc, #25344	; 0x6300
  78:	4e47006b 	cdpmi	0, 4, cr0, cr7, cr11, {3}
  7c:	53412055 	movtpl	r2, #4181	; 0x1055
  80:	322e3220 	eorcc	r3, lr, #32, 4
  84:	00302e36 	eorseq	r2, r0, r6, lsr lr
  88:	Address 0x0000000000000088 is out of bounds.


Disassembly of section .debug_abbrev:

00000000 <.debug_abbrev>:
   0:	10001101 	andne	r1, r0, r1, lsl #2
   4:	12011106 	andne	r1, r1, #-2147483647	; 0x80000001
   8:	1b080301 	blne	200c14 <CSSON+0x180c14>
   c:	13082508 	movwne	r2, #34056	; 0x8508
  10:	00000005 	andeq	r0, r0, r5

Disassembly of section .debug_aranges:

00000000 <.debug_aranges>:
   0:	0000001c 	andeq	r0, r0, ip, lsl r0
   4:	00000002 	andeq	r0, r0, r2
   8:	00040000 	andeq	r0, r4, r0
   c:	00000000 	andeq	r0, r0, r0
  10:	08000000 	stmdaeq	r0, {}	; <UNPREDICTABLE>
  14:	000000b0 	strheq	r0, [r0], -r0	; <UNPREDICTABLE>
	...
